; Listing generated by Microsoft (R) Optimizing Compiler Version 19.29.30146.0 

	TITLE	d:\cdev\ahlib\ahlib\release\_testing.obj
	.686P
	.XMM
	include listing.inc
	.model	flat

INCLUDELIB OLDNAMES

EXTRN	??_V@YAXPAX@Z:PROC				; operator delete[]
PUBLIC	?NewCapacity@?$Darray@H@AHLib@@AAEIXZ		; AHLib::Darray<int>::NewCapacity
PUBLIC	??0?$Darray@H@AHLib@@QAE@XZ			; AHLib::Darray<int>::Darray<int>
PUBLIC	??1?$Darray@H@AHLib@@QAE@XZ			; AHLib::Darray<int>::~Darray<int>
PUBLIC	?Count@?$Darray@H@AHLib@@QBEIXZ			; AHLib::Darray<int>::Count
PUBLIC	?Add@?$Darray@H@AHLib@@QAEXH@Z			; AHLib::Darray<int>::Add
PUBLIC	??A?$Darray@H@AHLib@@QAEAAHI@Z			; AHLib::Darray<int>::operator[]
PUBLIC	?__autoclassinit2@?$Darray@H@AHLib@@QAEXI@Z	; AHLib::Darray<int>::__autoclassinit2
PUBLIC	_main
;	COMDAT xdata$x
xdata$x	SEGMENT
__ehfuncinfo$_main DD 019930522H
	DD	01H
	DD	FLAT:__unwindtable$_main
	DD	2 DUP(00H)
	DD	2 DUP(00H)
	DD	00H
	DD	01H
__unwindtable$_main DD 0ffffffffH
	DD	FLAT:__unwindfunclet$_main$0
; Function compile flags: /Ogtp
;	COMDAT _main
_TEXT	SEGMENT
_data$ = -28						; size = 12
__$ArrayPad$ = -16					; size = 4
__$EHRec$ = -12						; size = 12
_main	PROC						; COMDAT
; File D:\CDev\AHLib\AHLib\_Testing.cpp
; Line 7
  00000	55		 push	 ebp
  00001	8b ec		 mov	 ebp, esp
  00003	6a ff		 push	 -1
  00005	68 00 00 00 00	 push	 __ehhandler$_main
  0000a	64 a1 00 00 00
	00		 mov	 eax, DWORD PTR fs:0
  00010	50		 push	 eax
  00011	83 ec 10	 sub	 esp, 16			; 00000010H
  00014	a1 00 00 00 00	 mov	 eax, DWORD PTR ___security_cookie
  00019	33 c5		 xor	 eax, ebp
  0001b	89 45 f0	 mov	 DWORD PTR __$ArrayPad$[ebp], eax
  0001e	56		 push	 esi
  0001f	50		 push	 eax
  00020	8d 45 f4	 lea	 eax, DWORD PTR __$EHRec$[ebp]
  00023	64 a3 00 00 00
	00		 mov	 DWORD PTR fs:0, eax
  00029	0f 57 c0	 xorps	 xmm0, xmm0
  0002c	c7 45 ec 00 00
	00 00		 mov	 DWORD PTR _data$[ebp+8], 0
  00033	66 0f d6 45 e4	 movq	 QWORD PTR _data$[ebp], xmm0
; File D:\CDev\AHLib\AHLib\Structures.h
; Line 53
  00038	6a 00		 push	 0
  0003a	c7 45 e8 00 00
	00 00		 mov	 DWORD PTR _data$[ebp+4], 0
  00041	e8 00 00 00 00	 call	 ??_U@YAPAXI@Z		; operator new[]
  00046	8b f0		 mov	 esi, eax
  00048	83 c4 04	 add	 esp, 4
  0004b	89 75 e4	 mov	 DWORD PTR _data$[ebp], esi
; File D:\CDev\AHLib\AHLib\_Testing.cpp
; Line 8
  0004e	c7 45 fc 00 00
	00 00		 mov	 DWORD PTR __$EHRec$[ebp+8], 0
; File D:\CDev\AHLib\AHLib\Structures.h
; Line 78
  00055	c7 06 08 00 00
	00		 mov	 DWORD PTR [esi], 8
; File D:\CDev\AHLib\AHLib\_Testing.cpp
; Line 15
  0005b	8b 0d 00 00 00
	00		 mov	 ecx, DWORD PTR __imp_?cout@std@@3V?$basic_ostream@DU?$char_traits@D@std@@@1@A
  00061	6a 08		 push	 8
; File D:\CDev\AHLib\AHLib\Structures.h
; Line 79
  00063	c7 45 ec 01 00
	00 00		 mov	 DWORD PTR _data$[ebp+8], 1
; File D:\CDev\AHLib\AHLib\_Testing.cpp
; Line 15
  0006a	ff 15 00 00 00
	00		 call	 DWORD PTR __imp_??6?$basic_ostream@DU?$char_traits@D@std@@@std@@QAEAAV01@H@Z
  00070	68 00 00 00 00	 push	 OFFSET ??$endl@DU?$char_traits@D@std@@@std@@YAAAV?$basic_ostream@DU?$char_traits@D@std@@@0@AAV10@@Z ; std::endl<char,std::char_traits<char> >
  00075	8b c8		 mov	 ecx, eax
  00077	ff 15 00 00 00
	00		 call	 DWORD PTR __imp_??6?$basic_ostream@DU?$char_traits@D@std@@@std@@QAEAAV01@P6AAAV01@AAV01@@Z@Z
; File D:\CDev\AHLib\AHLib\Structures.h
; Line 57
  0007d	56		 push	 esi
  0007e	e8 00 00 00 00	 call	 ??_V@YAXPAX@Z		; operator delete[]
  00083	83 c4 04	 add	 esp, 4
; File D:\CDev\AHLib\AHLib\_Testing.cpp
; Line 18
  00086	33 c0		 xor	 eax, eax
; Line 19
  00088	8b 4d f4	 mov	 ecx, DWORD PTR __$EHRec$[ebp]
  0008b	64 89 0d 00 00
	00 00		 mov	 DWORD PTR fs:0, ecx
  00092	59		 pop	 ecx
  00093	5e		 pop	 esi
  00094	8b 4d f0	 mov	 ecx, DWORD PTR __$ArrayPad$[ebp]
  00097	33 cd		 xor	 ecx, ebp
  00099	e8 00 00 00 00	 call	 @__security_check_cookie@4
  0009e	8b e5		 mov	 esp, ebp
  000a0	5d		 pop	 ebp
  000a1	c3		 ret	 0
_TEXT	ENDS
;	COMDAT text$x
text$x	SEGMENT
__unwindfunclet$_main$0:
  00000	8d 4d e4	 lea	 ecx, DWORD PTR _data$[ebp]
  00003	e9 00 00 00 00	 jmp	 ??1?$Darray@H@AHLib@@QAE@XZ ; AHLib::Darray<int>::~Darray<int>
  00008	cc		 int	 3
  00009	cc		 int	 3
  0000a	cc		 int	 3
  0000b	cc		 int	 3
  0000c	cc		 int	 3
__ehhandler$_main:
  0000d	90		 npad	 1
  0000e	90		 npad	 1
  0000f	8b 54 24 08	 mov	 edx, DWORD PTR [esp+8]
  00013	8d 42 0c	 lea	 eax, DWORD PTR [edx+12]
  00016	8b 4a e8	 mov	 ecx, DWORD PTR [edx-24]
  00019	33 c8		 xor	 ecx, eax
  0001b	e8 00 00 00 00	 call	 @__security_check_cookie@4
  00020	8b 4a fc	 mov	 ecx, DWORD PTR [edx-4]
  00023	33 c8		 xor	 ecx, eax
  00025	e8 00 00 00 00	 call	 @__security_check_cookie@4
  0002a	b8 00 00 00 00	 mov	 eax, OFFSET __ehfuncinfo$_main
  0002f	e9 00 00 00 00	 jmp	 ___CxxFrameHandler3
text$x	ENDS
_main	ENDP
; Function compile flags: /Ogtp
;	COMDAT ??A?$Darray@H@AHLib@@QAEAAHI@Z
_TEXT	SEGMENT
_index$ = 8						; size = 4
??A?$Darray@H@AHLib@@QAEAAHI@Z PROC			; AHLib::Darray<int>::operator[], COMDAT
; _this$ = ecx
; File D:\CDev\AHLib\AHLib\Structures.h
; Line 83
  00000	55		 push	 ebp
  00001	8b ec		 mov	 ebp, esp
; Line 84
  00003	8b 09		 mov	 ecx, DWORD PTR [ecx]
  00005	8b 45 08	 mov	 eax, DWORD PTR _index$[ebp]
  00008	8d 04 81	 lea	 eax, DWORD PTR [ecx+eax*4]
; Line 85
  0000b	5d		 pop	 ebp
  0000c	c2 04 00	 ret	 4
??A?$Darray@H@AHLib@@QAEAAHI@Z ENDP			; AHLib::Darray<int>::operator[]
_TEXT	ENDS
; Function compile flags: /Ogtp
;	COMDAT ?Add@?$Darray@H@AHLib@@QAEXH@Z
_TEXT	SEGMENT
_newObject$ = 8						; size = 4
?Add@?$Darray@H@AHLib@@QAEXH@Z PROC			; AHLib::Darray<int>::Add, COMDAT
; _this$ = ecx
; File D:\CDev\AHLib\AHLib\Structures.h
; Line 66
  00000	55		 push	 ebp
  00001	8b ec		 mov	 ebp, esp
  00003	57		 push	 edi
  00004	8b f9		 mov	 edi, ecx
; Line 67
  00006	8b 57 04	 mov	 edx, DWORD PTR [edi+4]
  00009	89 57 08	 mov	 DWORD PTR [edi+8], edx
  0000c	85 d2		 test	 edx, edx
  0000e	74 47		 je	 SHORT $LN6@Add
; Line 69
  00010	89 57 04	 mov	 DWORD PTR [edi+4], edx
; Line 71
  00013	33 c9		 xor	 ecx, ecx
  00015	8b c2		 mov	 eax, edx
  00017	ba 04 00 00 00	 mov	 edx, 4
  0001c	f7 e2		 mul	 edx
  0001e	56		 push	 esi
  0001f	0f 90 c1	 seto	 cl
  00022	f7 d9		 neg	 ecx
  00024	0b c8		 or	 ecx, eax
  00026	51		 push	 ecx
  00027	e8 00 00 00 00	 call	 ??_U@YAPAXI@Z		; operator new[]
; Line 72
  0002c	ff 77 08	 push	 DWORD PTR [edi+8]
  0002f	8b f0		 mov	 esi, eax
  00031	ff 37		 push	 DWORD PTR [edi]
  00033	56		 push	 esi
  00034	e8 00 00 00 00	 call	 _memcpy
; Line 74
  00039	ff 37		 push	 DWORD PTR [edi]
  0003b	e8 00 00 00 00	 call	 ??_V@YAXPAX@Z		; operator delete[]
; Line 75
  00040	8b 4f 08	 mov	 ecx, DWORD PTR [edi+8]
  00043	83 c4 14	 add	 esp, 20			; 00000014H
; Line 78
  00046	8b 45 08	 mov	 eax, DWORD PTR _newObject$[ebp]
  00049	89 37		 mov	 DWORD PTR [edi], esi
  0004b	89 04 8e	 mov	 DWORD PTR [esi+ecx*4], eax
; Line 80
  0004e	ff 47 08	 inc	 DWORD PTR [edi+8]
  00051	5e		 pop	 esi
  00052	5f		 pop	 edi
  00053	5d		 pop	 ebp
  00054	c2 04 00	 ret	 4
$LN6@Add:
; Line 75
  00057	8b 0f		 mov	 ecx, DWORD PTR [edi]
; Line 78
  00059	8b 45 08	 mov	 eax, DWORD PTR _newObject$[ebp]
  0005c	89 04 91	 mov	 DWORD PTR [ecx+edx*4], eax
; Line 80
  0005f	ff 47 08	 inc	 DWORD PTR [edi+8]
  00062	5f		 pop	 edi
  00063	5d		 pop	 ebp
  00064	c2 04 00	 ret	 4
?Add@?$Darray@H@AHLib@@QAEXH@Z ENDP			; AHLib::Darray<int>::Add
_TEXT	ENDS
; Function compile flags: /Ogtp
;	COMDAT ?Count@?$Darray@H@AHLib@@QBEIXZ
_TEXT	SEGMENT
?Count@?$Darray@H@AHLib@@QBEIXZ PROC			; AHLib::Darray<int>::Count, COMDAT
; _this$ = ecx
; File D:\CDev\AHLib\AHLib\Structures.h
; Line 62
  00000	8b 41 08	 mov	 eax, DWORD PTR [ecx+8]
; Line 63
  00003	c3		 ret	 0
?Count@?$Darray@H@AHLib@@QBEIXZ ENDP			; AHLib::Darray<int>::Count
_TEXT	ENDS
END
