; Listing generated by Microsoft (R) Optimizing Compiler Version 19.29.30146.0 

	TITLE	d:\cdev\ahlib\ahlib\release\codin221222.obj
	.686P
	.XMM
	include listing.inc
	.model	flat

INCLUDELIB OLDNAMES

PUBLIC	??_C@_0BC@EOODALEL@Unknown?5exception@		; `string'
PUBLIC	??_C@_0BF@KINCDENJ@bad?5array?5new?5length@	; `string'
PUBLIC	??_C@_0BA@JFNIOLAK@string?5too?5long@		; `string'
PUBLIC	??_C@_02LMMGGCAJ@?3?5@				; `string'
PUBLIC	??_C@_04MLBDMHLB@ok?$DPg@			; `string'
PUBLIC	??_C@_0P@BGFCCNGD@88217345a5g7m9@		; `string'
PUBLIC	??_C@_09PPAKJOMK@Chamomile@			; `string'
PUBLIC	??_C@_07CKGIMNOH@S3ym0ur@			; `string'
PUBLIC	??_C@_0BD@LDAHBIFK@directionsLuncheon@		; `string'
PUBLIC	??_C@_08OGBELMLN@?9?$DP?$DP?$DP?9?9?9?9@	; `string'
PUBLIC	??_C@_08GBJLHFMK@str33med@			; `string'
PUBLIC	??_C@_0BG@MPEHLFDD@44hans7fflammenwerfer@	; `string'
PUBLIC	??_C@_0BD@KBANNHGI@Average?5value?5for?5@	; `string'
PUBLIC	??_C@_0L@BMPAELGO@?9?9?9?9?9?9?9?9?9?9@		; `string'
PUBLIC	??_C@_03FLKELDHI@?$FN?3?5@			; `string'
PUBLIC	??_C@_0BL@KIJJBELD@Character?5for?5min?5average?$FL@ ; `string'
PUBLIC	??_C@_0DL@KADFLDAP@The?5string?5with?5the?5lowest?5aver@ ; `string'
PUBLIC	??_C@_0BA@FOIKENOD@vector?5too?5long@		; `string'
PUBLIC	??_R0P6A_ND@Z@8					; bool (__cdecl*)(char) `RTTI Type Descriptor'
PUBLIC	??_R4exception@std@@6B@				; std::exception::`RTTI Complete Object Locator'
PUBLIC	??_R2bad_array_new_length@std@@8		; std::bad_array_new_length::`RTTI Base Class Array'
PUBLIC	??_R0?AVbad_alloc@std@@@8			; std::bad_alloc `RTTI Type Descriptor'
PUBLIC	??_R2bad_alloc@std@@8				; std::bad_alloc::`RTTI Base Class Array'
PUBLIC	??_R0?AV?$_Func_base@_ND@std@@@8		; std::_Func_base<bool,char> `RTTI Type Descriptor'
PUBLIC	__CTA3?AVbad_array_new_length@std@@
PUBLIC	??_R0?AV?$_Func_impl_no_alloc@P6A_ND@Z_ND@std@@@8 ; std::_Func_impl_no_alloc<bool (__cdecl*)(char),bool,char> `RTTI Type Descriptor'
PUBLIC	??_7bad_array_new_length@std@@6B@		; std::bad_array_new_length::`vftable'
PUBLIC	??_R1A@?0A@EA@exception@std@@8			; std::exception::`RTTI Base Class Descriptor at (0,-1,0,64)'
PUBLIC	??_R1A@?0A@EA@bad_alloc@std@@8			; std::bad_alloc::`RTTI Base Class Descriptor at (0,-1,0,64)'
PUBLIC	__CT??_R0?AVbad_alloc@std@@@8??0bad_alloc@std@@QAE@ABV01@@Z12
PUBLIC	??_7?$_Func_impl_no_alloc@P6A_ND@Z_ND@std@@6B@	; std::_Func_impl_no_alloc<bool (__cdecl*)(char),bool,char>::`vftable'
PUBLIC	??_7bad_alloc@std@@6B@				; std::bad_alloc::`vftable'
PUBLIC	??_R1A@?0A@EA@?$_Func_impl_no_alloc@P6A_ND@Z_ND@std@@8 ; std::_Func_impl_no_alloc<bool (__cdecl*)(char),bool,char>::`RTTI Base Class Descriptor at (0,-1,0,64)'
PUBLIC	??_R2exception@std@@8				; std::exception::`RTTI Base Class Array'
PUBLIC	??_R4?$_Func_impl_no_alloc@P6A_ND@Z_ND@std@@6B@	; std::_Func_impl_no_alloc<bool (__cdecl*)(char),bool,char>::`RTTI Complete Object Locator'
PUBLIC	??_R3?$_Func_base@_ND@std@@8			; std::_Func_base<bool,char>::`RTTI Class Hierarchy Descriptor'
PUBLIC	??_7exception@std@@6B@				; std::exception::`vftable'
PUBLIC	??_R3exception@std@@8				; std::exception::`RTTI Class Hierarchy Descriptor'
PUBLIC	?_Fake_alloc@std@@3U_Fake_allocator@1@B		; std::_Fake_alloc
PUBLIC	??_R4bad_alloc@std@@6B@				; std::bad_alloc::`RTTI Complete Object Locator'
PUBLIC	??_R2?$_Func_impl_no_alloc@P6A_ND@Z_ND@std@@8	; std::_Func_impl_no_alloc<bool (__cdecl*)(char),bool,char>::`RTTI Base Class Array'
PUBLIC	??_R3bad_array_new_length@std@@8		; std::bad_array_new_length::`RTTI Class Hierarchy Descriptor'
PUBLIC	??_R3bad_alloc@std@@8				; std::bad_alloc::`RTTI Class Hierarchy Descriptor'
PUBLIC	__CT??_R0?AVexception@std@@@8??0exception@std@@QAE@ABV01@@Z12
PUBLIC	??_R4bad_array_new_length@std@@6B@		; std::bad_array_new_length::`RTTI Complete Object Locator'
PUBLIC	??_R1A@?0A@EA@bad_array_new_length@std@@8	; std::bad_array_new_length::`RTTI Base Class Descriptor at (0,-1,0,64)'
PUBLIC	??_R3?$_Func_impl_no_alloc@P6A_ND@Z_ND@std@@8	; std::_Func_impl_no_alloc<bool (__cdecl*)(char),bool,char>::`RTTI Class Hierarchy Descriptor'
PUBLIC	__TI3?AVbad_array_new_length@std@@
PUBLIC	__CT??_R0?AVbad_array_new_length@std@@@8??0bad_array_new_length@std@@QAE@ABV01@@Z12
PUBLIC	??_R1A@?0A@EA@?$_Func_base@_ND@std@@8		; std::_Func_base<bool,char>::`RTTI Base Class Descriptor at (0,-1,0,64)'
PUBLIC	??_R0?AVexception@std@@@8			; std::exception `RTTI Type Descriptor'
PUBLIC	??_R2?$_Func_base@_ND@std@@8			; std::_Func_base<bool,char>::`RTTI Base Class Array'
PUBLIC	??_R0?AVbad_array_new_length@std@@@8		; std::bad_array_new_length `RTTI Type Descriptor'
EXTRN	__imp_?rdstate@ios_base@std@@QBEHXZ:PROC
EXTRN	__imp_?good@ios_base@std@@QBE_NXZ:PROC
EXTRN	__imp_?flags@ios_base@std@@QBEHXZ:PROC
EXTRN	__imp_?width@ios_base@std@@QBE_JXZ:PROC
EXTRN	__imp_?width@ios_base@std@@QAE_J_J@Z:PROC
EXTRN	__imp_??6?$basic_ostream@DU?$char_traits@D@std@@@std@@QAEAAV01@H@Z:PROC
EXTRN	__imp_??6?$basic_ostream@DU?$char_traits@D@std@@@std@@QAEAAV01@P6AAAV01@AAV01@@Z@Z:PROC
EXTRN	__imp_?fill@?$basic_ios@DU?$char_traits@D@std@@@std@@QBEDXZ:PROC
EXTRN	__imp_?rdbuf@?$basic_ios@DU?$char_traits@D@std@@@std@@QBEPAV?$basic_streambuf@DU?$char_traits@D@std@@@2@XZ:PROC
EXTRN	__imp_?setstate@?$basic_ios@DU?$char_traits@D@std@@@std@@QAEXH_N@Z:PROC
EXTRN	__imp_?flush@?$basic_ostream@DU?$char_traits@D@std@@@std@@QAEAAV12@XZ:PROC
EXTRN	__imp_?_Osfx@?$basic_ostream@DU?$char_traits@D@std@@@std@@QAEXXZ:PROC
EXTRN	__imp_?tie@?$basic_ios@DU?$char_traits@D@std@@@std@@QBEPAV?$basic_ostream@DU?$char_traits@D@std@@@2@XZ:PROC
EXTRN	__imp_?sputc@?$basic_streambuf@DU?$char_traits@D@std@@@std@@QAEHD@Z:PROC
EXTRN	__imp_?put@?$basic_ostream@DU?$char_traits@D@std@@@std@@QAEAAV12@D@Z:PROC
EXTRN	__imp_?widen@?$basic_ios@DU?$char_traits@D@std@@@std@@QBEDD@Z:PROC
EXTRN	__imp_?sputn@?$basic_streambuf@DU?$char_traits@D@std@@@std@@QAE_JPBD_J@Z:PROC
EXTRN	__imp___invalid_parameter_noinfo_noreturn:PROC
EXTRN	__imp___Thrd_join:PROC
EXTRN	??_7type_info@@6B@:QWORD			; type_info::`vftable'
EXTRN	__imp___Thrd_id:PROC
EXTRN	__imp___Cnd_do_broadcast_at_thread_exit:PROC
EXTRN	__imp__terminate:PROC
EXTRN	??3@YAXPAXI@Z:PROC				; operator delete
EXTRN	_atexit:PROC
EXTRN	__imp____std_exception_copy:PROC
EXTRN	__imp___beginthreadex:PROC
EXTRN	__imp_?_Xlength_error@std@@YAXPBD@Z:PROC
EXTRN	__imp_?uncaught_exception@std@@YA_NXZ:PROC
EXTRN	__imp_?cout@std@@3V?$basic_ostream@DU?$char_traits@D@std@@@1@A:BYTE
EXTRN	__imp_?_Throw_Cpp_error@std@@YAXH@Z:PROC
EXTRN	??2@YAPAXI@Z:PROC				; operator new
EXTRN	__imp____std_exception_destroy:PROC
;	COMDAT ??_R0?AVbad_array_new_length@std@@@8
data$r	SEGMENT
??_R0?AVbad_array_new_length@std@@@8 DD FLAT:??_7type_info@@6B@ ; std::bad_array_new_length `RTTI Type Descriptor'
	DD	00H
	DB	'.?AVbad_array_new_length@std@@', 00H
data$r	ENDS
;	COMDAT ??_R2?$_Func_base@_ND@std@@8
rdata$r	SEGMENT
??_R2?$_Func_base@_ND@std@@8 DD FLAT:??_R1A@?0A@EA@?$_Func_base@_ND@std@@8 ; std::_Func_base<bool,char>::`RTTI Base Class Array'
rdata$r	ENDS
;	COMDAT ??_R0?AVexception@std@@@8
data$r	SEGMENT
??_R0?AVexception@std@@@8 DD FLAT:??_7type_info@@6B@	; std::exception `RTTI Type Descriptor'
	DD	00H
	DB	'.?AVexception@std@@', 00H
data$r	ENDS
;	COMDAT ??_R1A@?0A@EA@?$_Func_base@_ND@std@@8
rdata$r	SEGMENT
??_R1A@?0A@EA@?$_Func_base@_ND@std@@8 DD FLAT:??_R0?AV?$_Func_base@_ND@std@@@8 ; std::_Func_base<bool,char>::`RTTI Base Class Descriptor at (0,-1,0,64)'
	DD	00H
	DD	00H
	DD	0ffffffffH
	DD	00H
	DD	040H
	DD	FLAT:??_R3?$_Func_base@_ND@std@@8
rdata$r	ENDS
;	COMDAT __CT??_R0?AVbad_array_new_length@std@@@8??0bad_array_new_length@std@@QAE@ABV01@@Z12
xdata$x	SEGMENT
__CT??_R0?AVbad_array_new_length@std@@@8??0bad_array_new_length@std@@QAE@ABV01@@Z12 DD 00H
	DD	FLAT:??_R0?AVbad_array_new_length@std@@@8
	DD	00H
	DD	0ffffffffH
	ORG $+4
	DD	0cH
	DD	FLAT:??0bad_array_new_length@std@@QAE@ABV01@@Z
xdata$x	ENDS
;	COMDAT __TI3?AVbad_array_new_length@std@@
xdata$x	SEGMENT
__TI3?AVbad_array_new_length@std@@ DD 00H
	DD	FLAT:??1bad_array_new_length@std@@UAE@XZ
	DD	00H
	DD	FLAT:__CTA3?AVbad_array_new_length@std@@
xdata$x	ENDS
;	COMDAT ??_R3?$_Func_impl_no_alloc@P6A_ND@Z_ND@std@@8
rdata$r	SEGMENT
??_R3?$_Func_impl_no_alloc@P6A_ND@Z_ND@std@@8 DD 00H	; std::_Func_impl_no_alloc<bool (__cdecl*)(char),bool,char>::`RTTI Class Hierarchy Descriptor'
	DD	00H
	DD	02H
	DD	FLAT:??_R2?$_Func_impl_no_alloc@P6A_ND@Z_ND@std@@8
rdata$r	ENDS
;	COMDAT ??_R1A@?0A@EA@bad_array_new_length@std@@8
rdata$r	SEGMENT
??_R1A@?0A@EA@bad_array_new_length@std@@8 DD FLAT:??_R0?AVbad_array_new_length@std@@@8 ; std::bad_array_new_length::`RTTI Base Class Descriptor at (0,-1,0,64)'
	DD	02H
	DD	00H
	DD	0ffffffffH
	DD	00H
	DD	040H
	DD	FLAT:??_R3bad_array_new_length@std@@8
rdata$r	ENDS
;	COMDAT ??_R4bad_array_new_length@std@@6B@
rdata$r	SEGMENT
??_R4bad_array_new_length@std@@6B@ DD 00H		; std::bad_array_new_length::`RTTI Complete Object Locator'
	DD	00H
	DD	00H
	DD	FLAT:??_R0?AVbad_array_new_length@std@@@8
	DD	FLAT:??_R3bad_array_new_length@std@@8
rdata$r	ENDS
;	COMDAT __CT??_R0?AVexception@std@@@8??0exception@std@@QAE@ABV01@@Z12
xdata$x	SEGMENT
__CT??_R0?AVexception@std@@@8??0exception@std@@QAE@ABV01@@Z12 DD 00H
	DD	FLAT:??_R0?AVexception@std@@@8
	DD	00H
	DD	0ffffffffH
	ORG $+4
	DD	0cH
	DD	FLAT:??0exception@std@@QAE@ABV01@@Z
xdata$x	ENDS
;	COMDAT ??_R3bad_alloc@std@@8
rdata$r	SEGMENT
??_R3bad_alloc@std@@8 DD 00H				; std::bad_alloc::`RTTI Class Hierarchy Descriptor'
	DD	00H
	DD	02H
	DD	FLAT:??_R2bad_alloc@std@@8
rdata$r	ENDS
;	COMDAT ??_R3bad_array_new_length@std@@8
rdata$r	SEGMENT
??_R3bad_array_new_length@std@@8 DD 00H			; std::bad_array_new_length::`RTTI Class Hierarchy Descriptor'
	DD	00H
	DD	03H
	DD	FLAT:??_R2bad_array_new_length@std@@8
rdata$r	ENDS
;	COMDAT ??_R2?$_Func_impl_no_alloc@P6A_ND@Z_ND@std@@8
rdata$r	SEGMENT
??_R2?$_Func_impl_no_alloc@P6A_ND@Z_ND@std@@8 DD FLAT:??_R1A@?0A@EA@?$_Func_impl_no_alloc@P6A_ND@Z_ND@std@@8 ; std::_Func_impl_no_alloc<bool (__cdecl*)(char),bool,char>::`RTTI Base Class Array'
	DD	FLAT:??_R1A@?0A@EA@?$_Func_base@_ND@std@@8
rdata$r	ENDS
;	COMDAT ??_R4bad_alloc@std@@6B@
rdata$r	SEGMENT
??_R4bad_alloc@std@@6B@ DD 00H				; std::bad_alloc::`RTTI Complete Object Locator'
	DD	00H
	DD	00H
	DD	FLAT:??_R0?AVbad_alloc@std@@@8
	DD	FLAT:??_R3bad_alloc@std@@8
rdata$r	ENDS
;	COMDAT ?_Fake_alloc@std@@3U_Fake_allocator@1@B
CONST	SEGMENT
?_Fake_alloc@std@@3U_Fake_allocator@1@B	ORG $+1		; std::_Fake_alloc
CONST	ENDS
;	COMDAT ??_R3exception@std@@8
rdata$r	SEGMENT
??_R3exception@std@@8 DD 00H				; std::exception::`RTTI Class Hierarchy Descriptor'
	DD	00H
	DD	01H
	DD	FLAT:??_R2exception@std@@8
rdata$r	ENDS
;	COMDAT ??_7exception@std@@6B@
CONST	SEGMENT
??_7exception@std@@6B@ DD FLAT:??_R4exception@std@@6B@	; std::exception::`vftable'
	DD	FLAT:??_Eexception@std@@UAEPAXI@Z
	DD	FLAT:?what@exception@std@@UBEPBDXZ
CONST	ENDS
;	COMDAT ??_R3?$_Func_base@_ND@std@@8
rdata$r	SEGMENT
??_R3?$_Func_base@_ND@std@@8 DD 00H			; std::_Func_base<bool,char>::`RTTI Class Hierarchy Descriptor'
	DD	00H
	DD	01H
	DD	FLAT:??_R2?$_Func_base@_ND@std@@8
rdata$r	ENDS
;	COMDAT ??_R4?$_Func_impl_no_alloc@P6A_ND@Z_ND@std@@6B@
rdata$r	SEGMENT
??_R4?$_Func_impl_no_alloc@P6A_ND@Z_ND@std@@6B@ DD 00H	; std::_Func_impl_no_alloc<bool (__cdecl*)(char),bool,char>::`RTTI Complete Object Locator'
	DD	00H
	DD	00H
	DD	FLAT:??_R0?AV?$_Func_impl_no_alloc@P6A_ND@Z_ND@std@@@8
	DD	FLAT:??_R3?$_Func_impl_no_alloc@P6A_ND@Z_ND@std@@8
rdata$r	ENDS
;	COMDAT ??_R2exception@std@@8
rdata$r	SEGMENT
??_R2exception@std@@8 DD FLAT:??_R1A@?0A@EA@exception@std@@8 ; std::exception::`RTTI Base Class Array'
rdata$r	ENDS
;	COMDAT ??_R1A@?0A@EA@?$_Func_impl_no_alloc@P6A_ND@Z_ND@std@@8
rdata$r	SEGMENT
??_R1A@?0A@EA@?$_Func_impl_no_alloc@P6A_ND@Z_ND@std@@8 DD FLAT:??_R0?AV?$_Func_impl_no_alloc@P6A_ND@Z_ND@std@@@8 ; std::_Func_impl_no_alloc<bool (__cdecl*)(char),bool,char>::`RTTI Base Class Descriptor at (0,-1,0,64)'
	DD	01H
	DD	00H
	DD	0ffffffffH
	DD	00H
	DD	040H
	DD	FLAT:??_R3?$_Func_impl_no_alloc@P6A_ND@Z_ND@std@@8
rdata$r	ENDS
;	COMDAT ??_7bad_alloc@std@@6B@
CONST	SEGMENT
??_7bad_alloc@std@@6B@ DD FLAT:??_R4bad_alloc@std@@6B@	; std::bad_alloc::`vftable'
	DD	FLAT:??_Ebad_alloc@std@@UAEPAXI@Z
	DD	FLAT:?what@exception@std@@UBEPBDXZ
CONST	ENDS
;	COMDAT ??_7?$_Func_impl_no_alloc@P6A_ND@Z_ND@std@@6B@
CONST	SEGMENT
??_7?$_Func_impl_no_alloc@P6A_ND@Z_ND@std@@6B@ DD FLAT:??_R4?$_Func_impl_no_alloc@P6A_ND@Z_ND@std@@6B@ ; std::_Func_impl_no_alloc<bool (__cdecl*)(char),bool,char>::`vftable'
	DD	FLAT:?_Copy@?$_Func_impl_no_alloc@P6A_ND@Z_ND@std@@EBEPAV?$_Func_base@_ND@2@PAX@Z
	DD	FLAT:?_Move@?$_Func_impl_no_alloc@P6A_ND@Z_ND@std@@EAEPAV?$_Func_base@_ND@2@PAX@Z
	DD	FLAT:?_Do_call@?$_Func_impl_no_alloc@P6A_ND@Z_ND@std@@EAE_N$$QAD@Z
	DD	FLAT:?_Target_type@?$_Func_impl_no_alloc@P6A_ND@Z_ND@std@@EBEABVtype_info@@XZ
	DD	FLAT:?_Delete_this@?$_Func_impl_no_alloc@P6A_ND@Z_ND@std@@EAEX_N@Z
	DD	FLAT:?_Get@?$_Func_impl_no_alloc@P6A_ND@Z_ND@std@@EBEPBXXZ
CONST	ENDS
;	COMDAT __CT??_R0?AVbad_alloc@std@@@8??0bad_alloc@std@@QAE@ABV01@@Z12
xdata$x	SEGMENT
__CT??_R0?AVbad_alloc@std@@@8??0bad_alloc@std@@QAE@ABV01@@Z12 DD 010H
	DD	FLAT:??_R0?AVbad_alloc@std@@@8
	DD	00H
	DD	0ffffffffH
	ORG $+4
	DD	0cH
	DD	FLAT:??0bad_alloc@std@@QAE@ABV01@@Z
xdata$x	ENDS
;	COMDAT ??_R1A@?0A@EA@bad_alloc@std@@8
rdata$r	SEGMENT
??_R1A@?0A@EA@bad_alloc@std@@8 DD FLAT:??_R0?AVbad_alloc@std@@@8 ; std::bad_alloc::`RTTI Base Class Descriptor at (0,-1,0,64)'
	DD	01H
	DD	00H
	DD	0ffffffffH
	DD	00H
	DD	040H
	DD	FLAT:??_R3bad_alloc@std@@8
rdata$r	ENDS
;	COMDAT ??_R1A@?0A@EA@exception@std@@8
rdata$r	SEGMENT
??_R1A@?0A@EA@exception@std@@8 DD FLAT:??_R0?AVexception@std@@@8 ; std::exception::`RTTI Base Class Descriptor at (0,-1,0,64)'
	DD	00H
	DD	00H
	DD	0ffffffffH
	DD	00H
	DD	040H
	DD	FLAT:??_R3exception@std@@8
rdata$r	ENDS
;	COMDAT ??_7bad_array_new_length@std@@6B@
CONST	SEGMENT
??_7bad_array_new_length@std@@6B@ DD FLAT:??_R4bad_array_new_length@std@@6B@ ; std::bad_array_new_length::`vftable'
	DD	FLAT:??_Ebad_array_new_length@std@@UAEPAXI@Z
	DD	FLAT:?what@exception@std@@UBEPBDXZ
CONST	ENDS
;	COMDAT ??_R0?AV?$_Func_impl_no_alloc@P6A_ND@Z_ND@std@@@8
data$rs	SEGMENT
??_R0?AV?$_Func_impl_no_alloc@P6A_ND@Z_ND@std@@@8 DD FLAT:??_7type_info@@6B@ ; std::_Func_impl_no_alloc<bool (__cdecl*)(char),bool,char> `RTTI Type Descriptor'
	DD	00H
	DB	'.?AV?$_Func_impl_no_alloc@P6A_ND@Z_ND@std@@', 00H
data$rs	ENDS
;	COMDAT __CTA3?AVbad_array_new_length@std@@
xdata$x	SEGMENT
__CTA3?AVbad_array_new_length@std@@ DD 03H
	DD	FLAT:__CT??_R0?AVbad_array_new_length@std@@@8??0bad_array_new_length@std@@QAE@ABV01@@Z12
	DD	FLAT:__CT??_R0?AVbad_alloc@std@@@8??0bad_alloc@std@@QAE@ABV01@@Z12
	DD	FLAT:__CT??_R0?AVexception@std@@@8??0exception@std@@QAE@ABV01@@Z12
xdata$x	ENDS
;	COMDAT ??_R0?AV?$_Func_base@_ND@std@@@8
data$rs	SEGMENT
??_R0?AV?$_Func_base@_ND@std@@@8 DD FLAT:??_7type_info@@6B@ ; std::_Func_base<bool,char> `RTTI Type Descriptor'
	DD	00H
	DB	'.?AV?$_Func_base@_ND@std@@', 00H
data$rs	ENDS
;	COMDAT ??_R2bad_alloc@std@@8
rdata$r	SEGMENT
??_R2bad_alloc@std@@8 DD FLAT:??_R1A@?0A@EA@bad_alloc@std@@8 ; std::bad_alloc::`RTTI Base Class Array'
	DD	FLAT:??_R1A@?0A@EA@exception@std@@8
rdata$r	ENDS
;	COMDAT ??_R0?AVbad_alloc@std@@@8
data$r	SEGMENT
??_R0?AVbad_alloc@std@@@8 DD FLAT:??_7type_info@@6B@	; std::bad_alloc `RTTI Type Descriptor'
	DD	00H
	DB	'.?AVbad_alloc@std@@', 00H
data$r	ENDS
;	COMDAT ??_R2bad_array_new_length@std@@8
rdata$r	SEGMENT
??_R2bad_array_new_length@std@@8 DD FLAT:??_R1A@?0A@EA@bad_array_new_length@std@@8 ; std::bad_array_new_length::`RTTI Base Class Array'
	DD	FLAT:??_R1A@?0A@EA@bad_alloc@std@@8
	DD	FLAT:??_R1A@?0A@EA@exception@std@@8
rdata$r	ENDS
;	COMDAT ??_R4exception@std@@6B@
rdata$r	SEGMENT
??_R4exception@std@@6B@ DD 00H				; std::exception::`RTTI Complete Object Locator'
	DD	00H
	DD	00H
	DD	FLAT:??_R0?AVexception@std@@@8
	DD	FLAT:??_R3exception@std@@8
rdata$r	ENDS
;	COMDAT ??_R0P6A_ND@Z@8
data$r	SEGMENT
??_R0P6A_ND@Z@8 DD FLAT:??_7type_info@@6B@		; bool (__cdecl*)(char) `RTTI Type Descriptor'
	DD	00H
	DB	'.P6A_ND@Z', 00H
data$r	ENDS
;	COMDAT ??_C@_0BA@FOIKENOD@vector?5too?5long@
CONST	SEGMENT
??_C@_0BA@FOIKENOD@vector?5too?5long@ DB 'vector too long', 00H ; `string'
CONST	ENDS
;	COMDAT ??_C@_0DL@KADFLDAP@The?5string?5with?5the?5lowest?5aver@
CONST	SEGMENT
??_C@_0DL@KADFLDAP@The?5string?5with?5the?5lowest?5aver@ DB 'The string w'
	DB	'ith the lowest average has no alphabetic chars', 00H ; `string'
CONST	ENDS
;	COMDAT ??_C@_0BL@KIJJBELD@Character?5for?5min?5average?$FL@
CONST	SEGMENT
??_C@_0BL@KIJJBELD@Character?5for?5min?5average?$FL@ DB 'Character for mi'
	DB	'n average[', 00H				; `string'
CONST	ENDS
;	COMDAT ??_C@_03FLKELDHI@?$FN?3?5@
CONST	SEGMENT
??_C@_03FLKELDHI@?$FN?3?5@ DB ']: ', 00H		; `string'
CONST	ENDS
;	COMDAT ??_C@_0L@BMPAELGO@?9?9?9?9?9?9?9?9?9?9@
CONST	SEGMENT
??_C@_0L@BMPAELGO@?9?9?9?9?9?9?9?9?9?9@ DB '----------', 00H ; `string'
CONST	ENDS
;	COMDAT ??_C@_0BD@KBANNHGI@Average?5value?5for?5@
CONST	SEGMENT
??_C@_0BD@KBANNHGI@Average?5value?5for?5@ DB 'Average value for ', 00H ; `string'
CONST	ENDS
;	COMDAT ??_C@_0BG@MPEHLFDD@44hans7fflammenwerfer@
CONST	SEGMENT
??_C@_0BG@MPEHLFDD@44hans7fflammenwerfer@ DB '44hans7fflammenwerfer', 00H ; `string'
CONST	ENDS
;	COMDAT ??_C@_08GBJLHFMK@str33med@
CONST	SEGMENT
??_C@_08GBJLHFMK@str33med@ DB 'str33med', 00H		; `string'
CONST	ENDS
;	COMDAT ??_C@_08OGBELMLN@?9?$DP?$DP?$DP?9?9?9?9@
CONST	SEGMENT
??_C@_08OGBELMLN@?9?$DP?$DP?$DP?9?9?9?9@ DB '-???----', 00H ; `string'
CONST	ENDS
;	COMDAT ??_C@_0BD@LDAHBIFK@directionsLuncheon@
CONST	SEGMENT
??_C@_0BD@LDAHBIFK@directionsLuncheon@ DB 'directionsLuncheon', 00H ; `string'
CONST	ENDS
;	COMDAT ??_C@_07CKGIMNOH@S3ym0ur@
CONST	SEGMENT
??_C@_07CKGIMNOH@S3ym0ur@ DB 'S3ym0ur', 00H		; `string'
CONST	ENDS
;	COMDAT ??_C@_09PPAKJOMK@Chamomile@
CONST	SEGMENT
??_C@_09PPAKJOMK@Chamomile@ DB 'Chamomile', 00H		; `string'
CONST	ENDS
;	COMDAT ??_C@_0P@BGFCCNGD@88217345a5g7m9@
CONST	SEGMENT
??_C@_0P@BGFCCNGD@88217345a5g7m9@ DB '88217345a5g7m9', 00H ; `string'
CONST	ENDS
;	COMDAT ??_C@_04MLBDMHLB@ok?$DPg@
CONST	SEGMENT
??_C@_04MLBDMHLB@ok?$DPg@ DB 'ok?g', 00H		; `string'
CONST	ENDS
;	COMDAT ??_C@_02LMMGGCAJ@?3?5@
CONST	SEGMENT
??_C@_02LMMGGCAJ@?3?5@ DB ': ', 00H			; `string'
CONST	ENDS
;	COMDAT ??_C@_0BA@JFNIOLAK@string?5too?5long@
CONST	SEGMENT
??_C@_0BA@JFNIOLAK@string?5too?5long@ DB 'string too long', 00H ; `string'
CONST	ENDS
;	COMDAT ??_C@_0BF@KINCDENJ@bad?5array?5new?5length@
CONST	SEGMENT
??_C@_0BF@KINCDENJ@bad?5array?5new?5length@ DB 'bad array new length', 00H ; `string'
CONST	ENDS
;	COMDAT ??_C@_0BC@EOODALEL@Unknown?5exception@
CONST	SEGMENT
??_C@_0BC@EOODALEL@Unknown?5exception@ DB 'Unknown exception', 00H ; `string'
CONST	ENDS
PUBLIC	??$forward@ABQ6A_ND@Z@std@@YAABQ6A_ND@ZABQ6A_ND@Z@Z ; std::forward<bool (__cdecl*const &)(char)>
PUBLIC	??$invoke@AAP6A_ND@ZD$$V@std@@YA_NAAP6A_ND@Z$$QAD@Z ; std::invoke<bool (__cdecl*&)(char),char>
PUBLIC	??0?$_Func_base@_ND@std@@QAE@XZ			; std::_Func_base<bool,char>::_Func_base<bool,char>
PUBLIC	??$?0ABQ6A_ND@Z$0A@@?$_Func_impl_no_alloc@P6A_ND@Z_ND@std@@QAE@ABQ6A_ND@Z@Z ; std::_Func_impl_no_alloc<bool (__cdecl*)(char),bool,char>::_Func_impl_no_alloc<bool (__cdecl*)(char),bool,char><bool (__cdecl*const &)(char),0>
PUBLIC	??$_Call@AAP6A_ND@ZD@?$_Invoker_ret@_N$0A@@std@@SA_NAAP6A_ND@Z$$QAD@Z ; std::_Invoker_ret<bool,0>::_Call<bool (__cdecl*&)(char),char>
PUBLIC	??$addressof@Q6A_ND@Z@std@@YAPBQ6A_ND@ZABQ6A_ND@Z@Z ; std::addressof<bool (__cdecl*const)(char)>
PUBLIC	??$_Deallocate@$03$0A@@std@@YAXPAXI@Z		; std::_Deallocate<4,0>
PUBLIC	??$?0P6A_ND@Z$0A@@?$_Func_impl_no_alloc@P6A_ND@Z_ND@std@@QAE@$$QAP6A_ND@Z@Z ; std::_Func_impl_no_alloc<bool (__cdecl*)(char),bool,char>::_Func_impl_no_alloc<bool (__cdecl*)(char),bool,char><bool (__cdecl*)(char),0>
PUBLIC	??$forward@P6A_ND@Z@std@@YA$$QAP6A_ND@ZAAP6A_ND@Z@Z ; std::forward<bool (__cdecl*)(char)>
PUBLIC	??$_Test_callable@P6A_ND@Z@std@@YA_NABQ6A_ND@Z@Z ; std::_Test_callable<bool (__cdecl*)(char)>
PUBLIC	?_Copy@?$_Func_impl_no_alloc@P6A_ND@Z_ND@std@@EBEPAV?$_Func_base@_ND@2@PAX@Z ; std::_Func_impl_no_alloc<bool (__cdecl*)(char),bool,char>::_Copy
PUBLIC	?_Move@?$_Func_impl_no_alloc@P6A_ND@Z_ND@std@@EAEPAV?$_Func_base@_ND@2@PAX@Z ; std::_Func_impl_no_alloc<bool (__cdecl*)(char),bool,char>::_Move
PUBLIC	?_Do_call@?$_Func_impl_no_alloc@P6A_ND@Z_ND@std@@EAE_N$$QAD@Z ; std::_Func_impl_no_alloc<bool (__cdecl*)(char),bool,char>::_Do_call
PUBLIC	?_Target_type@?$_Func_impl_no_alloc@P6A_ND@Z_ND@std@@EBEABVtype_info@@XZ ; std::_Func_impl_no_alloc<bool (__cdecl*)(char),bool,char>::_Target_type
PUBLIC	?_Get@?$_Func_impl_no_alloc@P6A_ND@Z_ND@std@@EBEPBXXZ ; std::_Func_impl_no_alloc<bool (__cdecl*)(char),bool,char>::_Get
PUBLIC	?_Delete_this@?$_Func_impl_no_alloc@P6A_ND@Z_ND@std@@EAEX_N@Z ; std::_Func_impl_no_alloc<bool (__cdecl*)(char),bool,char>::_Delete_this
PUBLIC	??$_Reset@P6A_ND@Z@?$_Func_class@_ND@std@@IAEX$$QAP6A_ND@Z@Z ; std::_Func_class<bool,char>::_Reset<bool (__cdecl*)(char)>
PUBLIC	??$move@AAP6A_ND@Z@std@@YA$$QAP6A_ND@ZAAP6A_ND@Z@Z ; std::move<bool (__cdecl*&)(char)>
PUBLIC	??0?$allocator@H@std@@QAE@XZ			; std::allocator<int>::allocator<int>
PUBLIC	??0?$_Vector_val@U?$_Simple_types@H@std@@@std@@QAE@XZ ; std::_Vector_val<std::_Simple_types<int> >::_Vector_val<std::_Simple_types<int> >
PUBLIC	??0?$_Func_class@_ND@std@@QAE@XZ		; std::_Func_class<bool,char>::_Func_class<bool,char>
PUBLIC	??$_Destroy_range@V?$allocator@H@std@@@std@@YAXPAHQAHAAV?$allocator@H@0@@Z ; std::_Destroy_range<std::allocator<int> >
PUBLIC	??$_Deallocate@$07$0A@@std@@YAXPAXI@Z		; std::_Deallocate<8,0>
PUBLIC	??$?0$$V@?$_Compressed_pair@V?$allocator@H@std@@V?$_Vector_val@U?$_Simple_types@H@std@@@2@$00@std@@QAE@U_Zero_then_variadic_args_t@1@@Z ; std::_Compressed_pair<std::allocator<int>,std::_Vector_val<std::_Simple_types<int> >,1>::_Compressed_pair<std::allocator<int>,std::_Vector_val<std::_Simple_types<int> >,1><>
PUBLIC	??$endl@DU?$char_traits@D@std@@@std@@YAAAV?$basic_ostream@DU?$char_traits@D@std@@@0@AAV10@@Z ; std::endl<char,std::char_traits<char> >
PUBLIC	??$?0P6A_ND@Z$0A@@?$function@$$A6A_ND@Z@std@@QAE@P6A_ND@Z@Z ; std::function<bool __cdecl(char)>::function<bool __cdecl(char)><bool (__cdecl*)(char),0>
PUBLIC	?deallocate@?$allocator@H@std@@QAEXQAHI@Z	; std::allocator<int>::deallocate
PUBLIC	?_Destroy@?$vector@HV?$allocator@H@std@@@std@@AAEXPAH0@Z ; std::vector<int,std::allocator<int> >::_Destroy
PUBLIC	??0_Sentry_base@?$basic_ostream@DU?$char_traits@D@std@@@std@@QAE@AAV12@@Z ; std::basic_ostream<char,std::char_traits<char> >::_Sentry_base::_Sentry_base
PUBLIC	??1_Sentry_base@?$basic_ostream@DU?$char_traits@D@std@@@std@@QAE@XZ ; std::basic_ostream<char,std::char_traits<char> >::_Sentry_base::~_Sentry_base
PUBLIC	?eq_int_type@?$_Narrow_char_traits@DH@std@@SA_NABH0@Z ; std::_Narrow_char_traits<char,int>::eq_int_type
PUBLIC	?eof@?$_Narrow_char_traits@DH@std@@SAHXZ	; std::_Narrow_char_traits<char,int>::eof
PUBLIC	?_Tidy@?$vector@HV?$allocator@H@std@@@std@@AAEXXZ ; std::vector<int,std::allocator<int> >::_Tidy
PUBLIC	?_Get_first@?$_Compressed_pair@V?$allocator@H@std@@V?$_Vector_val@U?$_Simple_types@H@std@@@2@$00@std@@QAEAAV?$allocator@H@2@XZ ; std::_Compressed_pair<std::allocator<int>,std::_Vector_val<std::_Simple_types<int> >,1>::_Get_first
PUBLIC	??0sentry@?$basic_ostream@DU?$char_traits@D@std@@@std@@QAE@AAV12@@Z ; std::basic_ostream<char,std::char_traits<char> >::sentry::sentry
PUBLIC	??1sentry@?$basic_ostream@DU?$char_traits@D@std@@@std@@QAE@XZ ; std::basic_ostream<char,std::char_traits<char> >::sentry::~sentry
PUBLIC	??Bsentry@?$basic_ostream@DU?$char_traits@D@std@@@std@@QBE_NXZ ; std::basic_ostream<char,std::char_traits<char> >::sentry::operator bool
PUBLIC	??0?$vector@HV?$allocator@H@std@@@std@@QAE@XZ	; std::vector<int,std::allocator<int> >::vector<int,std::allocator<int> >
PUBLIC	??1?$vector@HV?$allocator@H@std@@@std@@QAE@XZ	; std::vector<int,std::allocator<int> >::~vector<int,std::allocator<int> >
PUBLIC	??A?$vector@HV?$allocator@H@std@@@std@@QAEAAHI@Z ; std::vector<int,std::allocator<int> >::operator[]
PUBLIC	?_Getal@?$vector@HV?$allocator@H@std@@@std@@AAEAAV?$allocator@H@2@XZ ; std::vector<int,std::allocator<int> >::_Getal
PUBLIC	?__autoclassinit2@?$vector@HV?$allocator@H@std@@@std@@QAEXI@Z ; std::vector<int,std::allocator<int> >::__autoclassinit2
PUBLIC	?_Alloc_proxy@_Container_base0@std@@QAEXABU_Fake_allocator@2@@Z ; std::_Container_base0::_Alloc_proxy
PUBLIC	?_Orphan_all@_Container_base0@std@@QAEXXZ	; std::_Container_base0::_Orphan_all
PUBLIC	?_Adjust_manually_vector_aligned@std@@YAXAAPAXAAI@Z ; std::_Adjust_manually_vector_aligned
PUBLIC	??0bad_alloc@std@@QAE@ABV01@@Z			; std::bad_alloc::bad_alloc
PUBLIC	??0bad_array_new_length@std@@QAE@ABV01@@Z	; std::bad_array_new_length::bad_array_new_length
PUBLIC	??1bad_array_new_length@std@@UAE@XZ		; std::bad_array_new_length::~bad_array_new_length
PUBLIC	??_Gbad_array_new_length@std@@UAEPAXI@Z		; std::bad_array_new_length::`scalar deleting destructor'
PUBLIC	??0bad_array_new_length@std@@QAE@XZ		; std::bad_array_new_length::bad_array_new_length
PUBLIC	??1bad_alloc@std@@UAE@XZ			; std::bad_alloc::~bad_alloc
PUBLIC	??_Gbad_alloc@std@@UAEPAXI@Z			; std::bad_alloc::`scalar deleting destructor'
PUBLIC	??0bad_alloc@std@@AAE@QBD@Z			; std::bad_alloc::bad_alloc
PUBLIC	??_Gexception@std@@UAEPAXI@Z			; std::exception::`scalar deleting destructor'
PUBLIC	?what@exception@std@@UBEPBDXZ			; std::exception::what
PUBLIC	??1exception@std@@UAE@XZ			; std::exception::~exception
PUBLIC	??0exception@std@@QAE@ABV01@@Z			; std::exception::exception
PUBLIC	??0exception@std@@QAE@QBDH@Z			; std::exception::exception
PUBLIC	??2@YAPAXIPAX@Z					; operator new
EXTRN	??_Eexception@std@@UAEPAXI@Z:PROC		; std::exception::`vector deleting destructor'
EXTRN	??_Ebad_alloc@std@@UAEPAXI@Z:PROC		; std::bad_alloc::`vector deleting destructor'
EXTRN	??_Ebad_array_new_length@std@@UAEPAXI@Z:PROC	; std::bad_array_new_length::`vector deleting destructor'
?averageResults@@3V?$vector@HV?$allocator@H@std@@@std@@A DB 0cH DUP (?) ; averageResults
_BSS	ENDS
CRT$XCU	SEGMENT
?averageResults$initializer$@@3P6AXXZA DD FLAT:??__EaverageResults@@YAXXZ ; averageResults$initializer$
;	COMDAT xdata$x
xdata$x	SEGMENT
__ehfuncinfo$?AverageForSingleString@@YAXPBDH@Z DQ 00000000119930522r ; 2.33398e-314
	DD	FLAT:__unwindtable$?AverageForSingleString@@YAXPBDH@Z
	DQ	00000000000000000r		; 0
	DQ	00000000000000000r		; 0
	DQ	00000000100000000r		; 2.122e-314
__unwindtable$?AverageForSingleString@@YAXPBDH@Z DD 0ffffffffH
	DD	FLAT:__unwindfunclet$?AverageForSingleString@@YAXPBDH@Z$1
xdata$x	ENDS
;	COMDAT xdata$x
xdata$x	SEGMENT
__ehfuncinfo$??1sentry@?$basic_ostream@DU?$char_traits@D@std@@@std@@QAE@XZ DQ 00000000119930522r ; 2.33398e-314
	DD	FLAT:__unwindtable$??1sentry@?$basic_ostream@DU?$char_traits@D@std@@@std@@QAE@XZ
	DQ	00000000000000000r		; 0
	DQ	00000000000000000r		; 0
	DQ	00000000500000000r		; 1.061e-313
__unwindtable$??1sentry@?$basic_ostream@DU?$char_traits@D@std@@@std@@QAE@XZ DD 0ffffffffH
	DD	FLAT:___std_terminate
xdata$x	ENDS
;	COMDAT xdata$x
xdata$x	SEGMENT
__ehfuncinfo$??0sentry@?$basic_ostream@DU?$char_traits@D@std@@@std@@QAE@AAV12@@Z DQ 00000000119930522r ; 2.33398e-314
	DD	FLAT:__unwindtable$??0sentry@?$basic_ostream@DU?$char_traits@D@std@@@std@@QAE@AAV12@@Z
	DQ	00000000000000000r		; 0
	DQ	00000000000000000r		; 0
	DQ	00000000100000000r		; 2.122e-314
__unwindtable$??0sentry@?$basic_ostream@DU?$char_traits@D@std@@@std@@QAE@AAV12@@Z DD 0ffffffffH
	DD	FLAT:__unwindfunclet$??0sentry@?$basic_ostream@DU?$char_traits@D@std@@@std@@QAE@AAV12@@Z$0
xdata$x	ENDS
;	COMDAT xdata$x
xdata$x	SEGMENT
__ehfuncinfo$??1_Sentry_base@?$basic_ostream@DU?$char_traits@D@std@@@std@@QAE@XZ DQ 00000000019930522r ; 2.11987e-315
	DQ	00000000000000000r		; 0
	DQ	00000000000000000r		; 0
	DQ	00000000000000000r		; 0
	DD	05H
END
