; Listing generated by Microsoft (R) Optimizing Compiler Version 19.29.30146.0 

	TITLE	d:\cdev\ahlib\ahlib\release\stringops.obj
	.686P
	.XMM
	include listing.inc
	.model	flat

INCLUDELIB OLDNAMES

EXTRN	??_U@YAPAXI@Z:PROC				; operator new[]
EXTRN	__imp_?_Xbad_function_call@std@@YAXXZ:PROC
PUBLIC	??$forward@D@std@@YA$$QADAAD@Z			; std::forward<char>
PUBLIC	?_Local@?$_Func_class@_ND@std@@ABE_NXZ		; std::_Func_class<bool,char>::_Local
PUBLIC	?_Set@?$_Func_class@_ND@std@@AAEXPAV?$_Func_base@_ND@2@@Z ; std::_Func_class<bool,char>::_Set
PUBLIC	?_Empty@?$_Func_class@_ND@std@@IBE_NXZ		; std::_Func_class<bool,char>::_Empty
PUBLIC	?_Tidy@?$_Func_class@_ND@std@@IAEXXZ		; std::_Func_class<bool,char>::_Tidy
PUBLIC	?_Getimpl@?$_Func_class@_ND@std@@ABEPAV?$_Func_base@_ND@2@XZ ; std::_Func_class<bool,char>::_Getimpl
PUBLIC	??R?$_Func_class@_ND@std@@QBE_ND@Z		; std::_Func_class<bool,char>::operator()
PUBLIC	??1?$_Func_class@_ND@std@@QAE@XZ		; std::_Func_class<bool,char>::~_Func_class<bool,char>
PUBLIC	??1?$function@$$A6A_ND@Z@std@@QAE@XZ		; std::function<bool __cdecl(char)>::~function<bool __cdecl(char)>
PUBLIC	?ChopString@AHLib@@YAPBDPBDV?$function@$$A6A_ND@Z@std@@@Z ; AHLib::ChopString
PUBLIC	?IsAlphabetical@AHLib@@YA_ND@Z			; AHLib::IsAlphabetical
;	COMDAT xdata$x
xdata$x	SEGMENT
__ehfuncinfo$?ChopString@AHLib@@YAPBDPBDV?$function@$$A6A_ND@Z@std@@@Z DQ 00000000119930522r ; 2.33398e-314
	DD	FLAT:__unwindtable$?ChopString@AHLib@@YAPBDPBDV?$function@$$A6A_ND@Z@std@@@Z
	DQ	00000000000000000r		; 0
	DQ	00000000000000000r		; 0
	DQ	00000000100000000r		; 2.122e-314
__unwindtable$?ChopString@AHLib@@YAPBDPBDV?$function@$$A6A_ND@Z@std@@@Z DD 0ffffffffH
	DD	FLAT:__unwindfunclet$?ChopString@AHLib@@YAPBDPBDV?$function@$$A6A_ND@Z@std@@@Z$0
xdata$x	ENDS
END
